target datalayout = "e-m:e-p270:32:32-p271:32:32-p272:64:64-i64:64-i128:128-f80:128-n8:16:32:64-S128"
target triple = "x86_64-pc-linux-gnu"

%"class.boost::container::pmr::pool_resource" = type { %"struct.boost::container::pmr::pool_options", ptr, %"class.boost::container::pmr::block_list_base", ptr, i64 }
%"struct.boost::container::pmr::pool_options" = type { i64, i64 }
%"class.boost::container::pmr::block_list_base" = type { %"struct.boost::container::pmr::list_node" }
%"struct.boost::container::pmr::list_node" = type { ptr, ptr }
%"class.boost::container::pmr::pool_data_t" = type { %"class.boost::container::pmr::block_slist_base", %"struct.boost::container::pmr::slist_node", i64 }
%"class.boost::container::pmr::block_slist_base" = type { %"struct.boost::container::pmr::slist_node" }
%"struct.boost::container::pmr::slist_node" = type { ptr }
%"struct.boost::container::pmr::block_list_header" = type { %"struct.boost::container::pmr::list_node", i64 }
%"struct.boost::container::pmr::block_slist_header" = type { %"struct.boost::container::pmr::slist_node", i64 }

; Function Attrs: mustprogress nounwind uwtable
define linkonce_odr hidden noundef ptr @_ZN5boost9container3pmr17slist_node_traits8get_nextEPKNS1_10slist_nodeE(ptr noundef %0) #1 comdat align 2 {
  %2 = alloca ptr, align 8
  store ptr %0, ptr %2, align 8, !tbaa !3
  %3 = load ptr, ptr %2, align 8, !tbaa !3
  %4 = getelementptr inbounds nuw %"struct.boost::container::pmr::slist_node", ptr %3, i32 0, i32 0
  %5 = load ptr, ptr %4, align 8, !tbaa !35
  ret ptr %5
}

; Function Attrs: mustprogress nounwind uwtable
define linkonce_odr hidden void @_ZN5boost9container3pmr17slist_node_traits8set_nextERKPNS1_10slist_nodeES6_(ptr noundef nonnull align 8 dereferenceable(8) %0, ptr noundef nonnull align 8 dereferenceable(8) %1) #1 comdat align 2 {
  %3 = alloca ptr, align 8
  %4 = alloca ptr, align 8
  store ptr %0, ptr %3, align 8, !tbaa !3
  store ptr %1, ptr %4, align 8, !tbaa !3
  %5 = load ptr, ptr %4, align 8, !tbaa !3
  %6 = load ptr, ptr %5, align 8, !tbaa !3
  %7 = load ptr, ptr %3, align 8, !tbaa !3
  %8 = load ptr, ptr %7, align 8, !tbaa !3
  %9 = getelementptr inbounds nuw %"struct.boost::container::pmr::slist_node", ptr %8, i32 0, i32 0
  store ptr %6, ptr %9, align 8, !tbaa !35
  ret void
}

; Function Attrs: mustprogress nounwind uwtable
define linkonce_odr hidden void @_ZN5boost9container3pmr16list_node_traits12set_previousERKPNS1_9list_nodeES6_(ptr noundef nonnull align 8 dereferenceable(8) %0, ptr noundef nonnull align 8 dereferenceable(8) %1) #1 comdat align 2 {
  %3 = alloca ptr, align 8
  %4 = alloca ptr, align 8
  store ptr %0, ptr %3, align 8, !tbaa !3
  store ptr %1, ptr %4, align 8, !tbaa !3
  %5 = load ptr, ptr %4, align 8, !tbaa !3
  %6 = load ptr, ptr %5, align 8, !tbaa !3
  %7 = load ptr, ptr %3, align 8, !tbaa !3
  %8 = load ptr, ptr %7, align 8, !tbaa !3
  %9 = getelementptr inbounds nuw %"struct.boost::container::pmr::list_node", ptr %8, i32 0, i32 1
  store ptr %6, ptr %9, align 8, !tbaa !44
  ret void
}

; Function Attrs: mustprogress nounwind uwtable
define linkonce_odr hidden void @_ZN5boost9container3pmr16list_node_traits8set_nextERKPNS1_9list_nodeES6_(ptr noundef nonnull align 8 dereferenceable(8) %0, ptr noundef nonnull align 8 dereferenceable(8) %1) #1 comdat align 2 {
  %3 = alloca ptr, align 8
  %4 = alloca ptr, align 8
  store ptr %0, ptr %3, align 8, !tbaa !3
  store ptr %1, ptr %4, align 8, !tbaa !3
  %5 = load ptr, ptr %4, align 8, !tbaa !3
  %6 = load ptr, ptr %5, align 8, !tbaa !3
  %7 = load ptr, ptr %3, align 8, !tbaa !3
  %8 = load ptr, ptr %7, align 8, !tbaa !3
  %9 = getelementptr inbounds nuw %"struct.boost::container::pmr::list_node", ptr %8, i32 0, i32 0
  store ptr %6, ptr %9, align 8, !tbaa !43
  ret void
}

; Function Attrs: mustprogress nounwind uwtable
define linkonce_odr hidden void @_ZN5boost9container3pmr16block_slist_baseINS1_18block_slist_headerEE7releaseERNS1_15memory_resourceE(ptr noundef nonnull align 8 dereferenceable(8) %0, ptr noundef nonnull align 8 dereferenceable(8) %1) #1 comdat align 2 personality ptr @__gxx_personality_v0 {
  %3 = alloca ptr, align 8
  %4 = alloca ptr, align 8
  %5 = alloca ptr, align 8
  %6 = alloca ptr, align 8
  %7 = alloca i64, align 8
  store ptr %0, ptr %3, align 8, !tbaa !3
  store ptr %1, ptr %4, align 8, !tbaa !3
  %8 = load ptr, ptr %3, align 8
  call void @llvm.lifetime.start.p0(i64 8, ptr %5) #13
  %9 = getelementptr inbounds nuw %"class.boost::container::pmr::block_slist_base", ptr %8, i32 0, i32 0
  %10 = invoke noundef ptr @_ZN5boost9container3pmr17slist_node_traits8get_nextEPKNS1_10slist_nodeE(ptr noundef %9)
          to label %11 unwind label %29

11:                                               ; preds = %2
  store ptr %10, ptr %5, align 8, !tbaa !3
  br label %12

12:                                               ; preds = %26, %11
  %13 = load ptr, ptr %5, align 8, !tbaa !3
  %14 = icmp ne ptr %13, null
  br i1 %14, label %15, label %27

15:                                               ; preds = %12
  call void @llvm.lifetime.start.p0(i64 8, ptr %6) #13
  %16 = load ptr, ptr %5, align 8, !tbaa !3
  store ptr %16, ptr %6, align 8, !tbaa !3
  %17 = load ptr, ptr %5, align 8, !tbaa !3
  %18 = invoke noundef ptr @_ZN5boost9container3pmr17slist_node_traits8get_nextEPKNS1_10slist_nodeE(ptr noundef %17)
          to label %19 unwind label %29

19:                                               ; preds = %15
  store ptr %18, ptr %5, align 8, !tbaa !3
  call void @llvm.lifetime.start.p0(i64 8, ptr %7) #13
  %20 = load ptr, ptr %6, align 8, !tbaa !3
  %21 = getelementptr inbounds nuw %"struct.boost::container::pmr::block_slist_header", ptr %20, i32 0, i32 1
  %22 = load i64, ptr %21, align 8, !tbaa !36
  store i64 %22, ptr %7, align 8, !tbaa !7
  %23 = load ptr, ptr %4, align 8, !tbaa !3
  %24 = load ptr, ptr %6, align 8, !tbaa !3
  %25 = load i64, ptr %7, align 8, !tbaa !7
  invoke void @_ZN5boost9container3pmr15memory_resource10deallocateEPvmm(ptr noundef nonnull align 8 dereferenceable(8) %23, ptr noundef %24, i64 noundef %25, i64 noundef 16)
          to label %26 unwind label %29

26:                                               ; preds = %19
  call void @llvm.lifetime.end.p0(i64 8, ptr %7) #13
  call void @llvm.lifetime.end.p0(i64 8, ptr %6) #13
  br label %12, !llvm.loop !38

27:                                               ; preds = %12
  %28 = getelementptr inbounds nuw %"class.boost::container::pmr::block_slist_base", ptr %8, i32 0, i32 0
  call void @_ZN5boost9intrusive23linear_slist_algorithmsINS_9container3pmr17slist_node_traitsEE11init_headerEPNS3_10slist_nodeE(ptr noundef %28) #13
  call void @llvm.lifetime.end.p0(i64 8, ptr %5) #13
  ret void

29:                                               ; preds = %19, %15, %2
  %30 = landingpad { ptr, i32 }
          catch ptr null
  %31 = extractvalue { ptr, i32 } %30, 0
  call void @__clang_call_terminate(ptr %31) #14
  unreachable
}

; Function Attrs: inlinehint mustprogress nounwind uwtable
define linkonce_odr hidden void @_ZN5boost9intrusive23linear_slist_algorithmsINS_9container3pmr17slist_node_traitsEE11init_headerEPNS3_10slist_nodeE(ptr noundef %0) #4 comdat align 2 personality ptr @__gxx_personality_v0 {
  %2 = alloca ptr, align 8
  %3 = alloca ptr, align 8
  store ptr %0, ptr %2, align 8, !tbaa !3
  call void @llvm.lifetime.start.p0(i64 8, ptr %3) #13
  store ptr null, ptr %3, align 8, !tbaa !3
  invoke void @_ZN5boost9container3pmr17slist_node_traits8set_nextERKPNS1_10slist_nodeES6_(ptr noundef nonnull align 8 dereferenceable(8) %2, ptr noundef nonnull align 8 dereferenceable(8) %3)
          to label %4 unwind label %5

4:                                                ; preds = %1
  call void @llvm.lifetime.end.p0(i64 8, ptr %3) #13
  ret void

5:                                                ; preds = %1
  %6 = landingpad { ptr, i32 }
          catch ptr null
  %7 = extractvalue { ptr, i32 } %6, 0
  call void @__clang_call_terminate(ptr %7) #14
  unreachable
}

; Function Attrs: mustprogress nounwind uwtable
define linkonce_odr hidden void @_ZN5boost9intrusive24circular_list_algorithmsINS_9container3pmr16list_node_traitsEE11init_headerEPNS3_9list_nodeE(ptr noundef %0) #1 comdat align 2 personality ptr @__gxx_personality_v0 {
  %2 = alloca ptr, align 8
  store ptr %0, ptr %2, align 8, !tbaa !3
  invoke void @_ZN5boost9container3pmr16list_node_traits8set_nextERKPNS1_9list_nodeES6_(ptr noundef nonnull align 8 dereferenceable(8) %2, ptr noundef nonnull align 8 dereferenceable(8) %2)
          to label %3 unwind label %5

3:                                                ; preds = %1
  invoke void @_ZN5boost9container3pmr16list_node_traits12set_previousERKPNS1_9list_nodeES6_(ptr noundef nonnull align 8 dereferenceable(8) %2, ptr noundef nonnull align 8 dereferenceable(8) %2)
          to label %4 unwind label %5

4:                                                ; preds = %3
  ret void

5:                                                ; preds = %3, %1
  %6 = landingpad { ptr, i32 }
          catch ptr null
  %7 = extractvalue { ptr, i32 } %6, 0
  call void @__clang_call_terminate(ptr %7) #14
  unreachable
}

; Function Attrs: mustprogress uwtable
define linkonce_odr hidden void @_ZN5boost9container3pmr15memory_resource10deallocateEPvmm(ptr noundef nonnull align 8 dereferenceable(8) %0, ptr noundef %1, i64 noundef %2, i64 noundef %3) #0 comdat align 2 {
  %5 = alloca ptr, align 8
  %6 = alloca ptr, align 8
  %7 = alloca i64, align 8
  %8 = alloca i64, align 8
  store ptr %0, ptr %5, align 8, !tbaa !3
  store ptr %1, ptr %6, align 8, !tbaa !3
  store i64 %2, ptr %7, align 8, !tbaa !7
  store i64 %3, ptr %8, align 8, !tbaa !7
  %9 = load ptr, ptr %5, align 8
  %10 = load ptr, ptr %6, align 8, !tbaa !3
  %11 = load i64, ptr %7, align 8, !tbaa !7
  %12 = load i64, ptr %8, align 8, !tbaa !7
  %13 = load ptr, ptr %9, align 8, !tbaa !19
  %14 = getelementptr inbounds ptr, ptr %13, i64 3
  %15 = load ptr, ptr %14, align 8
  call void %15(ptr noundef nonnull align 8 dereferenceable(8) %9, ptr noundef %10, i64 noundef %11, i64 noundef %12)
  ret void
}

; Function Attrs: mustprogress nounwind uwtable
define linkonce_odr hidden noundef ptr @_ZN5boost9container3pmr16list_node_traits8get_nextEPKNS1_9list_nodeE(ptr noundef %0) #1 comdat align 2 {
  %2 = alloca ptr, align 8
  store ptr %0, ptr %2, align 8, !tbaa !3
  %3 = load ptr, ptr %2, align 8, !tbaa !3
  %4 = getelementptr inbounds nuw %"struct.boost::container::pmr::list_node", ptr %3, i32 0, i32 0
  %5 = load ptr, ptr %4, align 8, !tbaa !43
  ret ptr %5
}

; Function Attrs: mustprogress nounwind uwtable
define linkonce_odr hidden void @_ZN5boost9container3pmr11pool_data_t7releaseERNS1_15memory_resourceE(ptr noundef nonnull align 8 dereferenceable(24) %0, ptr noundef nonnull align 8 dereferenceable(8) %1) #1 comdat align 2 {
  %3 = alloca ptr, align 8
  %4 = alloca ptr, align 8
  store ptr %0, ptr %3, align 8, !tbaa !3
  store ptr %1, ptr %4, align 8, !tbaa !3
  %5 = load ptr, ptr %3, align 8
  %6 = getelementptr inbounds nuw %"class.boost::container::pmr::pool_data_t", ptr %5, i32 0, i32 1
  call void @_ZN5boost9intrusive23linear_slist_algorithmsINS_9container3pmr17slist_node_traitsEE11init_headerEPNS3_10slist_nodeE(ptr noundef %6) #13
  %7 = load ptr, ptr %4, align 8, !tbaa !3
  call void @_ZN5boost9container3pmr16block_slist_baseINS1_18block_slist_headerEE7releaseERNS1_15memory_resourceE(ptr noundef nonnull align 8 dereferenceable(8) %5, ptr noundef nonnull align 8 dereferenceable(8) %7) #13
  %8 = getelementptr inbounds nuw %"class.boost::container::pmr::pool_data_t", ptr %5, i32 0, i32 2
  store i64 1, ptr %8, align 8, !tbaa !21
  ret void
}

; Function Attrs: mustprogress nounwind uwtable
define linkonce_odr hidden void @_ZN5boost9container3pmr15block_list_baseINS1_17block_list_headerEE7releaseERNS1_15memory_resourceE(ptr noundef nonnull align 8 dereferenceable(16) %0, ptr noundef nonnull align 8 dereferenceable(8) %1) #1 comdat align 2 personality ptr @__gxx_personality_v0 {
  %3 = alloca ptr, align 8
  %4 = alloca ptr, align 8
  %5 = alloca ptr, align 8
  %6 = alloca ptr, align 8
  %7 = alloca i64, align 8
  store ptr %0, ptr %3, align 8, !tbaa !3
  store ptr %1, ptr %4, align 8, !tbaa !3
  %8 = load ptr, ptr %3, align 8
  call void @llvm.lifetime.start.p0(i64 8, ptr %5) #13
  %9 = getelementptr inbounds nuw %"class.boost::container::pmr::block_list_base", ptr %8, i32 0, i32 0
  %10 = invoke noundef ptr @_ZN5boost9container3pmr16list_node_traits8get_nextEPKNS1_9list_nodeE(ptr noundef %9)
          to label %11 unwind label %30

11:                                               ; preds = %2
  store ptr %10, ptr %5, align 8, !tbaa !3
  br label %12

12:                                               ; preds = %27, %11
  %13 = load ptr, ptr %5, align 8, !tbaa !3
  %14 = getelementptr inbounds nuw %"class.boost::container::pmr::block_list_base", ptr %8, i32 0, i32 0
  %15 = icmp ne ptr %13, %14
  br i1 %15, label %16, label %28

16:                                               ; preds = %12
  call void @llvm.lifetime.start.p0(i64 8, ptr %6) #13
  %17 = load ptr, ptr %5, align 8, !tbaa !3
  store ptr %17, ptr %6, align 8, !tbaa !3
  %18 = load ptr, ptr %5, align 8, !tbaa !3
  %19 = invoke noundef ptr @_ZN5boost9container3pmr16list_node_traits8get_nextEPKNS1_9list_nodeE(ptr noundef %18)
          to label %20 unwind label %30

20:                                               ; preds = %16
  store ptr %19, ptr %5, align 8, !tbaa !3
  call void @llvm.lifetime.start.p0(i64 8, ptr %7) #13
  %21 = load ptr, ptr %6, align 8, !tbaa !3
  %22 = getelementptr inbounds nuw %"struct.boost::container::pmr::block_list_header", ptr %21, i32 0, i32 1
  %23 = load i64, ptr %22, align 8, !tbaa !30
  store i64 %23, ptr %7, align 8, !tbaa !7
  %24 = load ptr, ptr %4, align 8, !tbaa !3
  %25 = load ptr, ptr %6, align 8, !tbaa !3
  %26 = load i64, ptr %7, align 8, !tbaa !7
  invoke void @_ZN5boost9container3pmr15memory_resource10deallocateEPvmm(ptr noundef nonnull align 8 dereferenceable(8) %24, ptr noundef %25, i64 noundef %26, i64 noundef 16)
          to label %27 unwind label %30

27:                                               ; preds = %20
  call void @llvm.lifetime.end.p0(i64 8, ptr %7) #13
  call void @llvm.lifetime.end.p0(i64 8, ptr %6) #13
  br label %12, !llvm.loop !32

28:                                               ; preds = %12
  %29 = getelementptr inbounds nuw %"class.boost::container::pmr::block_list_base", ptr %8, i32 0, i32 0
  call void @_ZN5boost9intrusive24circular_list_algorithmsINS_9container3pmr16list_node_traitsEE11init_headerEPNS3_9list_nodeE(ptr noundef %29) #13
  call void @llvm.lifetime.end.p0(i64 8, ptr %5) #13
  ret void

30:                                               ; preds = %20, %16, %2
  %31 = landingpad { ptr, i32 }
          catch ptr null
  %32 = extractvalue { ptr, i32 } %31, 0
  call void @__clang_call_terminate(ptr %32) #14
  unreachable
}

; Function Attrs: mustprogress uwtable
define hidden void @_ZN5boost9container3pmr13pool_resource7releaseEv(ptr noundef nonnull align 8 dereferenceable(56) %0) #0 align 2 {
  %2 = alloca ptr, align 8
  %3 = alloca i64, align 8
  %4 = alloca i64, align 8
  store ptr %0, ptr %2, align 8, !tbaa !3
  %5 = load ptr, ptr %2, align 8
  %6 = getelementptr inbounds nuw %"class.boost::container::pmr::pool_resource", ptr %5, i32 0, i32 2
  %7 = getelementptr inbounds nuw %"class.boost::container::pmr::pool_resource", ptr %5, i32 0, i32 1
  %8 = load ptr, ptr %7, align 8, !tbaa !14
  call void @_ZN5boost9container3pmr15block_list_baseINS1_17block_list_headerEE7releaseERNS1_15memory_resourceE(ptr noundef nonnull align 8 dereferenceable(16) %6, ptr noundef nonnull align 8 dereferenceable(8) %8) #13
  call void @llvm.lifetime.start.p0(i64 8, ptr %3) #13
  store i64 0, ptr %3, align 8, !tbaa !7
  call void @llvm.lifetime.start.p0(i64 8, ptr %4) #13
  %9 = getelementptr inbounds nuw %"class.boost::container::pmr::pool_resource", ptr %5, i32 0, i32 4
  %10 = load i64, ptr %9, align 8, !tbaa !18
  store i64 %10, ptr %4, align 8, !tbaa !7
  br label %11

11:                                               ; preds = %23, %1
  %12 = load i64, ptr %3, align 8, !tbaa !7
  %13 = load i64, ptr %4, align 8, !tbaa !7
  %14 = icmp ne i64 %12, %13
  br i1 %14, label %16, label %15

15:                                               ; preds = %11
  call void @llvm.lifetime.end.p0(i64 8, ptr %4) #13
  call void @llvm.lifetime.end.p0(i64 8, ptr %3) #13
  br label %26

16:                                               ; preds = %11
  %17 = getelementptr inbounds nuw %"class.boost::container::pmr::pool_resource", ptr %5, i32 0, i32 3
  %18 = load ptr, ptr %17, align 8, !tbaa !15
  %19 = load i64, ptr %3, align 8, !tbaa !7
  %20 = getelementptr inbounds nuw %"class.boost::container::pmr::pool_data_t", ptr %18, i64 %19
  %21 = getelementptr inbounds nuw %"class.boost::container::pmr::pool_resource", ptr %5, i32 0, i32 1
  %22 = load ptr, ptr %21, align 8, !tbaa !14
  call void @_ZN5boost9container3pmr11pool_data_t7releaseERNS1_15memory_resourceE(ptr noundef nonnull align 8 dereferenceable(24) %20, ptr noundef nonnull align 8 dereferenceable(8) %22)
  br label %23

23:                                               ; preds = %16
  %24 = load i64, ptr %3, align 8, !tbaa !7
  %25 = add i64 %24, 1
  store i64 %25, ptr %3, align 8, !tbaa !7
  br label %11, !llvm.loop !29

26:                                               ; preds = %15
  ret void
}