; Function Attrs: mustprogress uwtable
define hidden void @_ZN5boost9container3pmr13pool_resource7releaseEv(ptr noundef nonnull align 8 dereferenceable(56) %0) local_unnamed_addr #2 align 2 personality ptr @__gxx_personality_v0 {
  %2 = getelementptr inbounds nuw i8, ptr %0, i64 24
  %3 = getelementptr inbounds nuw i8, ptr %0, i64 16
  %4 = load ptr, ptr %3, align 8, !tbaa !13
  %5 = load ptr, ptr %2, align 8, !tbaa !27
  br label %_ZN5boost9container3pmr15memory_resource10deallocateEPvmm.exit.i

_ZN5boost9container3pmr15memory_resource10deallocateEPvmm.exit.i: ; preds = %6, %1
  %.0.i = phi ptr [ %5, %1 ], [ %7, %6 ]
  %.not.i = icmp eq ptr %.0.i, %2
  br i1 %.not.i, label %_ZN5boost9container3pmr15block_list_baseINS1_17block_list_headerEE7releaseERNS1_15memory_resourceE.exit, label %6

6:                                                ; preds = %_ZN5boost9container3pmr15memory_resource10deallocateEPvmm.exit.i
  %7 = load ptr, ptr %.0.i, align 8, !tbaa !27
  %8 = getelementptr inbounds nuw i8, ptr %.0.i, i64 16
  %9 = load i64, ptr %8, align 8, !tbaa !29
  %10 = load ptr, ptr %4, align 8, !tbaa !14
  %11 = getelementptr inbounds i8, ptr %10, i64 24
  %12 = load ptr, ptr %11, align 8
  invoke void %12(ptr noundef nonnull align 8 dereferenceable(8) %4, ptr noundef nonnull %.0.i, i64 noundef %9, i64 noundef 16)
          to label %_ZN5boost9container3pmr15memory_resource10deallocateEPvmm.exit.i unwind label %13

13:                                               ; preds = %6
  %14 = landingpad { ptr, i32 }
          catch ptr null
  %15 = extractvalue { ptr, i32 } %14, 0
  tail call void @__clang_call_terminate(ptr %15) #19
  unreachable

_ZN5boost9container3pmr15block_list_baseINS1_17block_list_headerEE7releaseERNS1_15memory_resourceE.exit: ; preds = %_ZN5boost9container3pmr15memory_resource10deallocateEPvmm.exit.i
  store ptr %2, ptr %2, align 8, !tbaa !27
  %16 = getelementptr inbounds nuw i8, ptr %0, i64 32
  store ptr %2, ptr %16, align 8, !tbaa !28
  %17 = getelementptr inbounds nuw i8, ptr %0, i64 48
  %18 = load i64, ptr %17, align 8, !tbaa !17
  %.not4 = icmp eq i64 %18, 0
  br i1 %.not4, label %._crit_edge, label %.lr.ph

.lr.ph:                                           ; preds = %_ZN5boost9container3pmr15block_list_baseINS1_17block_list_headerEE7releaseERNS1_15memory_resourceE.exit
  %19 = getelementptr inbounds nuw i8, ptr %0, i64 40
  br label %20

._crit_edge:                                      ; preds = %_ZN5boost9container3pmr11pool_data_t7releaseERNS1_15memory_resourceE.exit, %_ZN5boost9container3pmr15block_list_baseINS1_17block_list_headerEE7releaseERNS1_15memory_resourceE.exit
  ret void

20:                                               ; preds = %.lr.ph, %_ZN5boost9container3pmr11pool_data_t7releaseERNS1_15memory_resourceE.exit
  %.05 = phi i64 [ 0, %.lr.ph ], [ %37, %_ZN5boost9container3pmr11pool_data_t7releaseERNS1_15memory_resourceE.exit ]
  %21 = load ptr, ptr %19, align 8, !tbaa !16
  %22 = getelementptr inbounds nuw %"class.boost::container::pmr::pool_data_t", ptr %21, i64 %.05
  %23 = load ptr, ptr %3, align 8, !tbaa !13
  %24 = getelementptr inbounds nuw i8, ptr %22, i64 8
  store ptr null, ptr %24, align 8, !tbaa !18
  %25 = load ptr, ptr %22, align 8, !tbaa !18
  br label %_ZN5boost9container3pmr15memory_resource10deallocateEPvmm.exit.i.i

_ZN5boost9container3pmr15memory_resource10deallocateEPvmm.exit.i.i: ; preds = %26, %20
  %.0.i.i = phi ptr [ %25, %20 ], [ %27, %26 ]
  %.not.i.i = icmp eq ptr %.0.i.i, null
  br i1 %.not.i.i, label %_ZN5boost9container3pmr11pool_data_t7releaseERNS1_15memory_resourceE.exit, label %26

26:                                               ; preds = %_ZN5boost9container3pmr15memory_resource10deallocateEPvmm.exit.i.i
  %27 = load ptr, ptr %.0.i.i, align 8, !tbaa !18
  %28 = getelementptr inbounds nuw i8, ptr %.0.i.i, i64 8
  %29 = load i64, ptr %28, align 8, !tbaa !31
  %30 = load ptr, ptr %23, align 8, !tbaa !14
  %31 = getelementptr inbounds i8, ptr %30, i64 24
  %32 = load ptr, ptr %31, align 8
  invoke void %32(ptr noundef nonnull align 8 dereferenceable(8) %23, ptr noundef nonnull %.0.i.i, i64 noundef %29, i64 noundef 16)
          to label %_ZN5boost9container3pmr15memory_resource10deallocateEPvmm.exit.i.i unwind label %33

33:                                               ; preds = %26
  %34 = landingpad { ptr, i32 }
          catch ptr null
  %35 = extractvalue { ptr, i32 } %34, 0
  tail call void @__clang_call_terminate(ptr %35) #19
  unreachable

_ZN5boost9container3pmr11pool_data_t7releaseERNS1_15memory_resourceE.exit: ; preds = %_ZN5boost9container3pmr15memory_resource10deallocateEPvmm.exit.i.i
  store ptr null, ptr %22, align 8, !tbaa !18
  %36 = getelementptr inbounds nuw i8, ptr %22, i64 16
  store i64 1, ptr %36, align 8, !tbaa !20
  %37 = add nuw i64 %.05, 1
  %.not = icmp eq i64 %37, %18
  br i1 %.not, label %._crit_edge, label %20, !llvm.loop !33
}